target datalayout = "e-m:e-p270:32:32-p271:32:32-p272:64:64-i64:64-i128:128-f80:128-n8:16:32:64-S128"
target triple = "x86_64-pc-linux-gnu"

%struct.FT_BBox_ = type { i64, i64, i64, i64 }
%struct.CFF_FontRecDictRec_ = type { i32, i32, i32, i32, i32, i32, i8, i64, i64, i64, i32, i32, %struct.FT_Matrix_, i8, i64, %struct.FT_Vector_, i64, %struct.FT_BBox_, i64, i64, i64, i64, i64, i64, i64, i32, i32, i32, i64, i64, i64, i64, i64, i64, i64, i64, i32, i16, i16, i64, i32 }
%struct.FT_Matrix_ = type { i64, i64, i64, i64 }
%struct.FT_Vector_ = type { i64, i64 }
%struct.CFF_ParserRec_ = type { ptr, ptr, ptr, ptr, ptr, ptr, i32, i32, ptr, i16, i16 }

; Function Attrs: nounwind uwtable
define internal i32 @cff_parse_multiple_master(ptr noundef %0) #0 {
  %2 = alloca ptr, align 8
  %3 = alloca ptr, align 8
  %4 = alloca i32, align 4
  %5 = alloca i64, align 8
  store ptr %0, ptr %2, align 8
  %6 = load ptr, ptr %2, align 8
  %7 = getelementptr inbounds %struct.CFF_ParserRec_, ptr %6, i32 0, i32 8
  %8 = load ptr, ptr %7, align 8
  store ptr %8, ptr %3, align 8
  store i32 161, ptr %4, align 4
  %9 = load ptr, ptr %2, align 8
  %10 = getelementptr inbounds %struct.CFF_ParserRec_, ptr %9, i32 0, i32 5
  %11 = load ptr, ptr %10, align 8
  %12 = load ptr, ptr %2, align 8
  %13 = getelementptr inbounds %struct.CFF_ParserRec_, ptr %12, i32 0, i32 4
  %14 = load ptr, ptr %13, align 8
  %15 = getelementptr inbounds ptr, ptr %14, i64 5
  %16 = icmp uge ptr %11, %15
  br i1 %16, label %17, label %61

17:                                               ; preds = %1
  %18 = load ptr, ptr %2, align 8
  %19 = load ptr, ptr %2, align 8
  %20 = getelementptr inbounds %struct.CFF_ParserRec_, ptr %19, i32 0, i32 4
  %21 = load ptr, ptr %20, align 8
  %22 = call i64 @cff_parse_num(ptr noundef %18, ptr noundef %21)
  store i64 %22, ptr %5, align 8
  %23 = load i64, ptr %5, align 8
  %24 = icmp sgt i64 %23, 16
  br i1 %24, label %28, label %25

25:                                               ; preds = %17
  %26 = load i64, ptr %5, align 8
  %27 = icmp slt i64 %26, 2
  br i1 %27, label %28, label %31

28:                                               ; preds = %25, %17
  br label %29

29:                                               ; preds = %28
  br label %30

30:                                               ; preds = %29
  store i32 3, ptr %4, align 4
  br label %60

31:                                               ; preds = %25
  %32 = load i64, ptr %5, align 8
  %33 = trunc i64 %32 to i16
  %34 = load ptr, ptr %3, align 8
  %35 = getelementptr inbounds %struct.CFF_FontRecDictRec_, ptr %34, i32 0, i32 37
  store i16 %33, ptr %35, align 4
  %36 = load ptr, ptr %2, align 8
  %37 = getelementptr inbounds %struct.CFF_ParserRec_, ptr %36, i32 0, i32 5
  %38 = load ptr, ptr %37, align 8
  %39 = load ptr, ptr %2, align 8
  %40 = getelementptr inbounds %struct.CFF_ParserRec_, ptr %39, i32 0, i32 4
  %41 = load ptr, ptr %40, align 8
  %42 = ptrtoint ptr %38 to i64
  %43 = ptrtoint ptr %41 to i64
  %44 = sub i64 %42, %43
  %45 = sdiv exact i64 %44, 8
  %46 = sub nsw i64 %45, 4
  %47 = trunc i64 %46 to i16
  %48 = load ptr, ptr %3, align 8
  %49 = getelementptr inbounds %struct.CFF_FontRecDictRec_, ptr %48, i32 0, i32 38
  store i16 %47, ptr %49, align 2
  %50 = load ptr, ptr %3, align 8
  %51 = getelementptr inbounds %struct.CFF_FontRecDictRec_, ptr %50, i32 0, i32 37
  %52 = load i16, ptr %51, align 4
  %53 = load ptr, ptr %2, align 8
  %54 = getelementptr inbounds %struct.CFF_ParserRec_, ptr %53, i32 0, i32 9
  store i16 %52, ptr %54, align 8
  %55 = load ptr, ptr %3, align 8
  %56 = getelementptr inbounds %struct.CFF_FontRecDictRec_, ptr %55, i32 0, i32 38
  %57 = load i16, ptr %56, align 2
  %58 = load ptr, ptr %2, align 8
  %59 = getelementptr inbounds %struct.CFF_ParserRec_, ptr %58, i32 0, i32 10
  store i16 %57, ptr %59, align 2
  store i32 0, ptr %4, align 4
  br label %60

60:                                               ; preds = %31, %30
  br label %61

61:                                               ; preds = %60, %1
  %62 = load i32, ptr %4, align 4
  ret i32 %62
}