; Function Attrs: nounwind uwtable
define internal range(i32 0, 162) i32 @cff_parse_multiple_master(ptr nocapture noundef %0) #4 {
  %2 = getelementptr inbounds i8, ptr %0, i64 56
  %3 = load ptr, ptr %2, align 8
  %4 = getelementptr inbounds i8, ptr %0, i64 40
  %5 = load ptr, ptr %4, align 8
  %6 = getelementptr inbounds i8, ptr %0, i64 32
  %7 = load ptr, ptr %6, align 8
  %8 = getelementptr inbounds i8, ptr %7, i64 40
  %.not = icmp ult ptr %5, %8
  br i1 %.not, label %27, label %9

9:                                                ; preds = %1
  %.val = load ptr, ptr %7, align 8
  %10 = tail call fastcc i64 @cff_parse_num(ptr noundef nonnull %0, ptr %.val)
  %11 = add i64 %10, -17
  %or.cond = icmp ult i64 %11, -15
  br i1 %or.cond, label %27, label %12

12:                                               ; preds = %9
  %13 = trunc nuw nsw i64 %10 to i16
  %14 = getelementptr inbounds i8, ptr %3, i64 308
  store i16 %13, ptr %14, align 4
  %15 = load ptr, ptr %4, align 8
  %16 = load ptr, ptr %6, align 8
  %17 = ptrtoint ptr %15 to i64
  %18 = ptrtoint ptr %16 to i64
  %19 = sub i64 %17, %18
  %20 = lshr exact i64 %19, 3
  %21 = trunc i64 %20 to i16
  %22 = add i16 %21, -4
  %23 = getelementptr inbounds i8, ptr %3, i64 310
  store i16 %22, ptr %23, align 2
  %24 = getelementptr inbounds i8, ptr %0, i64 64
  store i16 %13, ptr %24, align 8
  %25 = load i16, ptr %23, align 2
  %26 = getelementptr inbounds i8, ptr %0, i64 66
  store i16 %25, ptr %26, align 2
  br label %27

27:                                               ; preds = %9, %12, %1
  %.0 = phi i32 [ 0, %12 ], [ 161, %1 ], [ 3, %9 ]
  ret i32 %.0
}